target datalayout = "e-m:e-p270:32:32-p271:32:32-p272:64:64-i64:64-i128:128-f80:128-n8:16:32:64-S128"
target triple = "x86_64-pc-linux-gnu"

%"class.smt::theory_array" = type <{ %"class.smt::theory_array_base.base", [7 x i8], %class.ptr_vector.20, ptr, %"struct.smt::theory_array_stats", [4 x i8], %class.union_find, %class.trail_stack, i32, [4 x i8] }>
%"class.smt::theory_array_base.base" = type <{ %"class.smt::theory.base", i8, [2 x i8], i32, [4 x i8], %class.svector.1, %class.ptr_vector, %class.svector.3, %class.svector.3, %class.svector.3, %class.scoped_ptr, %class.ptr_vector.5, %class.obj_map, %class.ptr_hashtable, %class.svector.9, ptr, %class.ptr_vector, %class.ptr_vector.11, %class.svector.1, %class.obj_map.13, %class.ptr_vector, %class.ptr_vector.18, i8 }>
%"class.smt::theory.base" = type <{ ptr, i32, [4 x i8], ptr, ptr, %class.ptr_vector, %class.svector, i32, i8 }>
%class.svector = type { %class.vector.0 }
%class.vector.0 = type { ptr }
%class.svector.3 = type { %class.vector.4 }
%class.vector.4 = type { ptr }
%class.scoped_ptr = type { ptr }
%class.ptr_vector.5 = type { %class.vector.6 }
%class.vector.6 = type { ptr }
%class.obj_map = type { %class.core_hashtable }
%class.core_hashtable = type <{ ptr, i32, i32, i32, [4 x i8] }>
%class.ptr_hashtable = type { %class.core_hashtable.base.8, [4 x i8] }
%class.core_hashtable.base.8 = type <{ ptr, i32, i32, i32 }>
%class.svector.9 = type { %class.vector.10 }
%class.vector.10 = type { ptr }
%class.ptr_vector.11 = type { %class.vector.12 }
%class.vector.12 = type { ptr }
%class.svector.1 = type { %class.vector.2 }
%class.vector.2 = type { ptr }
%class.obj_map.13 = type { %class.core_hashtable.14 }
%class.core_hashtable.14 = type <{ ptr, i32, i32, i32, [4 x i8] }>
%class.ptr_vector = type { %class.vector }
%class.vector = type { ptr }
%class.ptr_vector.18 = type { %class.vector.19 }
%class.vector.19 = type { ptr }
%class.ptr_vector.20 = type { %class.vector.21 }
%class.vector.21 = type { ptr }
%"struct.smt::theory_array_stats" = type { i32, i32, i32, i32, i32, i32, i32, i32, i32, i32, i32, i32, i32 }
%class.union_find = type { ptr, ptr, %class.svector, %class.svector, %class.svector, %"class.union_find<smt::theory_array>::mk_var_trail" }
%"class.union_find<smt::theory_array>::mk_var_trail" = type { %class.trail, ptr }
%class.trail = type { ptr }
%class.trail_stack = type { %class.ptr_vector.22, %class.svector, %class.region }
%class.ptr_vector.22 = type { %class.vector.23 }
%class.vector.23 = type { ptr }
%class.region = type { ptr, ptr, ptr, ptr, ptr }
%struct.delete_proc = type { i8 }

; Function Attrs: mustprogress uwtable
define linkonce_odr hidden void @_ZN6vectorIP5trailLb0EjE11free_memoryEv(ptr noundef nonnull align 8 dereferenceable(8) %0) #6 comdat align 2 {
  %2 = alloca ptr, align 8
  store ptr %0, ptr %2, align 8, !tbaa !684
  %3 = load ptr, ptr %2, align 8
  %4 = getelementptr inbounds nuw %class.vector.23, ptr %3, i32 0, i32 0
  %5 = load ptr, ptr %4, align 8, !tbaa !686
  %6 = getelementptr inbounds i32, ptr %5, i64 -2
  call void @_ZN6memory10deallocateEPv(ptr noundef %6)
  ret void
}

; Function Attrs: mustprogress uwtable
define linkonce_odr hidden void @_ZN6vectorIjLb0EjE11free_memoryEv(ptr noundef nonnull align 8 dereferenceable(8) %0) #6 comdat align 2 {
  %2 = alloca ptr, align 8
  store ptr %0, ptr %2, align 8, !tbaa !682
  %3 = load ptr, ptr %2, align 8
  %4 = getelementptr inbounds nuw %class.vector.0, ptr %3, i32 0, i32 0
  %5 = load ptr, ptr %4, align 8, !tbaa !687
  %6 = getelementptr inbounds i32, ptr %5, i64 -2
  call void @_ZN6memory10deallocateEPv(ptr noundef %6)
  ret void
}

; Function Attrs: mustprogress uwtable
define linkonce_odr hidden void @_ZN6vectorIPN3smt12theory_array8var_dataELb0EjE11free_memoryEv(ptr noundef nonnull align 8 dereferenceable(8) %0) #6 comdat align 2 {
  %2 = alloca ptr, align 8
  store ptr %0, ptr %2, align 8, !tbaa !569
  %3 = load ptr, ptr %2, align 8
  %4 = getelementptr inbounds nuw %class.vector.21, ptr %3, i32 0, i32 0
  %5 = load ptr, ptr %4, align 8, !tbaa !578
  %6 = getelementptr inbounds i32, ptr %5, i64 -2
  call void @_ZN6memory10deallocateEPv(ptr noundef %6)
  ret void
}

; Function Attrs: mustprogress uwtable
define linkonce_odr hidden void @_ZN6vectorIP5trailLb0EjE7destroyEv(ptr noundef nonnull align 8 dereferenceable(8) %0) #6 comdat align 2 {
  %2 = alloca ptr, align 8
  store ptr %0, ptr %2, align 8, !tbaa !684
  %3 = load ptr, ptr %2, align 8
  %4 = getelementptr inbounds nuw %class.vector.23, ptr %3, i32 0, i32 0
  %5 = load ptr, ptr %4, align 8, !tbaa !686
  %6 = icmp ne ptr %5, null
  br i1 %6, label %7, label %8

7:                                                ; preds = %1
  call void @_ZN6vectorIP5trailLb0EjE11free_memoryEv(ptr noundef nonnull align 8 dereferenceable(8) %3)
  br label %8

8:                                                ; preds = %7, %1
  ret void
}

; Function Attrs: mustprogress uwtable
define linkonce_odr hidden void @_ZN6vectorIjLb0EjE7destroyEv(ptr noundef nonnull align 8 dereferenceable(8) %0) #6 comdat align 2 {
  %2 = alloca ptr, align 8
  store ptr %0, ptr %2, align 8, !tbaa !682
  %3 = load ptr, ptr %2, align 8
  %4 = getelementptr inbounds nuw %class.vector.0, ptr %3, i32 0, i32 0
  %5 = load ptr, ptr %4, align 8, !tbaa !687
  %6 = icmp ne ptr %5, null
  br i1 %6, label %7, label %8

7:                                                ; preds = %1
  call void @_ZN6vectorIjLb0EjE11free_memoryEv(ptr noundef nonnull align 8 dereferenceable(8) %3)
  br label %8

8:                                                ; preds = %7, %1
  ret void
}

; Function Attrs: mustprogress uwtable
define linkonce_odr hidden void @_ZN6vectorIPN3smt12theory_array8var_dataELb0EjE7destroyEv(ptr noundef nonnull align 8 dereferenceable(8) %0) #6 comdat align 2 {
  %2 = alloca ptr, align 8
  store ptr %0, ptr %2, align 8, !tbaa !569
  %3 = load ptr, ptr %2, align 8
  %4 = getelementptr inbounds nuw %class.vector.21, ptr %3, i32 0, i32 0
  %5 = load ptr, ptr %4, align 8, !tbaa !578
  %6 = icmp ne ptr %5, null
  br i1 %6, label %7, label %8

7:                                                ; preds = %1
  call void @_ZN6vectorIPN3smt12theory_array8var_dataELb0EjE11free_memoryEv(ptr noundef nonnull align 8 dereferenceable(8) %3)
  br label %8

8:                                                ; preds = %7, %1
  ret void
}

; Function Attrs: mustprogress nounwind uwtable
define linkonce_odr hidden void @_ZN5trailD2Ev(ptr noundef nonnull align 8 dereferenceable(8) %0) unnamed_addr #4 comdat align 2 {
  %2 = alloca ptr, align 8
  store ptr %0, ptr %2, align 8, !tbaa !615
  ret void
}

; Function Attrs: mustprogress nounwind uwtable
define linkonce_odr hidden void @_ZN6vectorIP5trailLb0EjED2Ev(ptr noundef nonnull align 8 dereferenceable(8) %0) unnamed_addr #4 comdat align 2 personality ptr @__gxx_personality_v0 {
  %2 = alloca ptr, align 8
  store ptr %0, ptr %2, align 8, !tbaa !684
  %3 = load ptr, ptr %2, align 8
  invoke void @_ZN6vectorIP5trailLb0EjE7destroyEv(ptr noundef nonnull align 8 dereferenceable(8) %3)
          to label %4 unwind label %5

4:                                                ; preds = %1
  ret void

5:                                                ; preds = %1
  %6 = landingpad { ptr, i32 }
          catch ptr null
  %7 = extractvalue { ptr, i32 } %6, 0
  call void @__clang_call_terminate(ptr %7) #20
  unreachable
}

; Function Attrs: mustprogress nounwind uwtable
define linkonce_odr hidden void @_ZN6vectorIjLb0EjED2Ev(ptr noundef nonnull align 8 dereferenceable(8) %0) unnamed_addr #4 comdat align 2 personality ptr @__gxx_personality_v0 {
  %2 = alloca ptr, align 8
  store ptr %0, ptr %2, align 8, !tbaa !682
  %3 = load ptr, ptr %2, align 8
  invoke void @_ZN6vectorIjLb0EjE7destroyEv(ptr noundef nonnull align 8 dereferenceable(8) %3)
          to label %4 unwind label %5

4:                                                ; preds = %1
  ret void

5:                                                ; preds = %1
  %6 = landingpad { ptr, i32 }
          catch ptr null
  %7 = extractvalue { ptr, i32 } %6, 0
  call void @__clang_call_terminate(ptr %7) #20
  unreachable
}

; Function Attrs: mustprogress uwtable
define linkonce_odr hidden void @_ZN11delete_procIN3smt12theory_array8var_dataEEclEPS2_(ptr noundef nonnull align 1 dereferenceable(1) %0, ptr noundef %1) #6 comdat align 2 {
  %3 = alloca ptr, align 8
  %4 = alloca ptr, align 8
  store ptr %0, ptr %3, align 8, !tbaa !735
  store ptr %1, ptr %4, align 8, !tbaa !574
  %5 = load ptr, ptr %4, align 8, !tbaa !574
  %6 = icmp ne ptr %5, null
  br i1 %6, label %7, label %9

7:                                                ; preds = %2
  %8 = load ptr, ptr %4, align 8, !tbaa !574
  call void @_Z7deallocIN3smt12theory_array8var_dataEEvPT_(ptr noundef %8)
  br label %9

9:                                                ; preds = %7, %2
  ret void
}

; Function Attrs: mustprogress nounwind uwtable
define linkonce_odr hidden noundef i32 @_ZNK6vectorIPN3smt12theory_array8var_dataELb0EjE4sizeEv(ptr noundef nonnull align 8 dereferenceable(8) %0) #4 comdat align 2 {
  %2 = alloca i32, align 4
  %3 = alloca ptr, align 8
  store ptr %0, ptr %3, align 8, !tbaa !569
  %4 = load ptr, ptr %3, align 8
  %5 = getelementptr inbounds nuw %class.vector.21, ptr %4, i32 0, i32 0
  %6 = load ptr, ptr %5, align 8, !tbaa !578
  %7 = icmp eq ptr %6, null
  br i1 %7, label %8, label %9

8:                                                ; preds = %1
  store i32 0, ptr %2, align 4
  br label %14

9:                                                ; preds = %1
  %10 = getelementptr inbounds nuw %class.vector.21, ptr %4, i32 0, i32 0
  %11 = load ptr, ptr %10, align 8, !tbaa !578
  %12 = getelementptr inbounds i32, ptr %11, i64 -1
  %13 = load i32, ptr %12, align 4, !tbaa !8
  store i32 %13, ptr %2, align 4
  br label %14

14:                                               ; preds = %9, %8
  %15 = load i32, ptr %2, align 4
  ret i32 %15
}

; Function Attrs: mustprogress nounwind uwtable
define linkonce_odr hidden void @_ZN6vectorIPN3smt12theory_array8var_dataELb0EjED2Ev(ptr noundef nonnull align 8 dereferenceable(8) %0) unnamed_addr #4 comdat align 2 personality ptr @__gxx_personality_v0 {
  %2 = alloca ptr, align 8
  store ptr %0, ptr %2, align 8, !tbaa !569
  %3 = load ptr, ptr %2, align 8
  invoke void @_ZN6vectorIPN3smt12theory_array8var_dataELb0EjE7destroyEv(ptr noundef nonnull align 8 dereferenceable(8) %3)
          to label %4 unwind label %5

4:                                                ; preds = %1
  ret void

5:                                                ; preds = %1
  %6 = landingpad { ptr, i32 }
          catch ptr null
  %7 = extractvalue { ptr, i32 } %6, 0
  call void @__clang_call_terminate(ptr %7) #20
  unreachable
}

; Function Attrs: inlinehint mustprogress nounwind uwtable
define linkonce_odr hidden void @_ZN10union_findIN3smt12theory_arrayEED2Ev(ptr noundef nonnull align 8 dereferenceable(56) %0) unnamed_addr #8 comdat align 2 {
  %2 = alloca ptr, align 8
  store ptr %0, ptr %2, align 8, !tbaa !567
  %3 = load ptr, ptr %2, align 8
  %4 = getelementptr inbounds nuw %class.union_find, ptr %3, i32 0, i32 5
  call void @_ZN5trailD2Ev(ptr noundef nonnull align 8 dereferenceable(16) %4) #3
  %5 = getelementptr inbounds nuw %class.union_find, ptr %3, i32 0, i32 4
  call void @_ZN6vectorIjLb0EjED2Ev(ptr noundef nonnull align 8 dereferenceable(8) %5) #3
  %6 = getelementptr inbounds nuw %class.union_find, ptr %3, i32 0, i32 3
  call void @_ZN6vectorIjLb0EjED2Ev(ptr noundef nonnull align 8 dereferenceable(8) %6) #3
  %7 = getelementptr inbounds nuw %class.union_find, ptr %3, i32 0, i32 2
  call void @_ZN6vectorIjLb0EjED2Ev(ptr noundef nonnull align 8 dereferenceable(8) %7) #3
  ret void
}

; Function Attrs: inlinehint mustprogress nounwind uwtable
define linkonce_odr hidden void @_ZN11trail_stackD2Ev(ptr noundef nonnull align 8 dereferenceable(56) %0) unnamed_addr #8 comdat align 2 {
  %2 = alloca ptr, align 8
  store ptr %0, ptr %2, align 8, !tbaa !568
  %3 = load ptr, ptr %2, align 8
  %4 = getelementptr inbounds nuw %class.trail_stack, ptr %3, i32 0, i32 2
  call void @_ZN6regionD1Ev(ptr noundef nonnull align 8 dereferenceable(40) %4) #3
  %5 = getelementptr inbounds nuw %class.trail_stack, ptr %3, i32 0, i32 1
  call void @_ZN6vectorIjLb0EjED2Ev(ptr noundef nonnull align 8 dereferenceable(8) %5) #3
  %6 = getelementptr inbounds nuw %class.trail_stack, ptr %3, i32 0, i32 0
  call void @_ZN6vectorIP5trailLb0EjED2Ev(ptr noundef nonnull align 8 dereferenceable(8) %6) #3
  ret void
}

; Function Attrs: mustprogress uwtable
define linkonce_odr hidden void @_ZSt8for_eachIPPN3smt12theory_array8var_dataE11delete_procIS2_EET0_T_S8_S7_(ptr noundef %0, ptr noundef %1) #6 comdat {
  %3 = alloca %struct.delete_proc, align 1
  %4 = alloca ptr, align 8
  %5 = alloca ptr, align 8
  store ptr %0, ptr %4, align 8, !tbaa !573
  store ptr %1, ptr %5, align 8, !tbaa !573
  br label %6

6:                                                ; preds = %13, %2
  %7 = load ptr, ptr %4, align 8, !tbaa !573
  %8 = load ptr, ptr %5, align 8, !tbaa !573
  %9 = icmp ne ptr %7, %8
  br i1 %9, label %10, label %16

10:                                               ; preds = %6
  %11 = load ptr, ptr %4, align 8, !tbaa !573
  %12 = load ptr, ptr %11, align 8, !tbaa !574
  call void @_ZN11delete_procIN3smt12theory_array8var_dataEEclEPS2_(ptr noundef nonnull align 1 dereferenceable(1) %3, ptr noundef %12)
  br label %13

13:                                               ; preds = %10
  %14 = load ptr, ptr %4, align 8, !tbaa !573
  %15 = getelementptr inbounds nuw ptr, ptr %14, i32 1
  store ptr %15, ptr %4, align 8, !tbaa !573
  br label %6, !llvm.loop !576

16:                                               ; preds = %6
  ret void
}

; Function Attrs: mustprogress uwtable
define linkonce_odr hidden noundef ptr @_ZN6vectorIPN3smt12theory_array8var_dataELb0EjE3endEv(ptr noundef nonnull align 8 dereferenceable(8) %0) #6 comdat align 2 {
  %2 = alloca ptr, align 8
  store ptr %0, ptr %2, align 8, !tbaa !569
  %3 = load ptr, ptr %2, align 8
  %4 = getelementptr inbounds nuw %class.vector.21, ptr %3, i32 0, i32 0
  %5 = load ptr, ptr %4, align 8, !tbaa !578
  %6 = call noundef i32 @_ZNK6vectorIPN3smt12theory_array8var_dataELb0EjE4sizeEv(ptr noundef nonnull align 8 dereferenceable(8) %3)
  %7 = zext i32 %6 to i64
  %8 = getelementptr inbounds nuw ptr, ptr %5, i64 %7
  ret ptr %8
}

; Function Attrs: mustprogress nounwind uwtable
define linkonce_odr hidden noundef ptr @_ZN6vectorIPN3smt12theory_array8var_dataELb0EjE5beginEv(ptr noundef nonnull align 8 dereferenceable(8) %0) #4 comdat align 2 {
  %2 = alloca ptr, align 8
  store ptr %0, ptr %2, align 8, !tbaa !569
  %3 = load ptr, ptr %2, align 8
  %4 = getelementptr inbounds nuw %class.vector.21, ptr %3, i32 0, i32 0
  %5 = load ptr, ptr %4, align 8, !tbaa !578
  ret ptr %5
}

; Function Attrs: mustprogress nounwind uwtable
define hidden void @_ZN3smt12theory_arrayD2Ev(ptr noundef nonnull align 8 dereferenceable(444) %0) unnamed_addr #4 align 2 personality ptr @__gxx_personality_v0 {
  %2 = alloca ptr, align 8
  store ptr %0, ptr %2, align 8, !tbaa !28
  %3 = load ptr, ptr %2, align 8
  store ptr getelementptr inbounds inrange(-16, 456) ({ [59 x ptr] }, ptr @_ZTVN3smt12theory_arrayE, i32 0, i32 0, i32 2), ptr %3, align 8, !tbaa !32
  %4 = getelementptr inbounds nuw %"class.smt::theory_array", ptr %3, i32 0, i32 2
  %5 = invoke noundef ptr @_ZN6vectorIPN3smt12theory_array8var_dataELb0EjE5beginEv(ptr noundef nonnull align 8 dereferenceable(8) %4)
          to label %6 unwind label %14

6:                                                ; preds = %1
  %7 = getelementptr inbounds nuw %"class.smt::theory_array", ptr %3, i32 0, i32 2
  %8 = invoke noundef ptr @_ZN6vectorIPN3smt12theory_array8var_dataELb0EjE3endEv(ptr noundef nonnull align 8 dereferenceable(8) %7)
          to label %9 unwind label %14

9:                                                ; preds = %6
  invoke void @_ZSt8for_eachIPPN3smt12theory_array8var_dataE11delete_procIS2_EET0_T_S8_S7_(ptr noundef %5, ptr noundef %8)
          to label %10 unwind label %14

10:                                               ; preds = %9
  %11 = getelementptr inbounds nuw %"class.smt::theory_array", ptr %3, i32 0, i32 7
  call void @_ZN11trail_stackD2Ev(ptr noundef nonnull align 8 dereferenceable(56) %11) #3
  %12 = getelementptr inbounds nuw %"class.smt::theory_array", ptr %3, i32 0, i32 6
  call void @_ZN10union_findIN3smt12theory_arrayEED2Ev(ptr noundef nonnull align 8 dereferenceable(56) %12) #3
  %13 = getelementptr inbounds nuw %"class.smt::theory_array", ptr %3, i32 0, i32 2
  call void @_ZN6vectorIPN3smt12theory_array8var_dataELb0EjED2Ev(ptr noundef nonnull align 8 dereferenceable(8) %13) #3
  call void @_ZN3smt17theory_array_baseD2Ev(ptr noundef nonnull align 8 dereferenceable(249) %3) #3
  ret void

14:                                               ; preds = %9, %6, %1
  %15 = landingpad { ptr, i32 }
          catch ptr null
  %16 = extractvalue { ptr, i32 } %15, 0
  call void @__clang_call_terminate(ptr %16) #20
  unreachable
}