; Function Attrs: mustprogress nounwind uwtable
define hidden void @_ZN3smt12theory_arrayD2Ev(ptr noundef nonnull align 8 dereferenceable(444) initializes((0, 8)) %0) unnamed_addr #6 align 2 personality ptr @__gxx_personality_v0 {
  store ptr getelementptr inbounds nuw inrange(-16, 456) (i8, ptr @_ZTVN3smt12theory_arrayE, i64 16), ptr %0, align 8, !tbaa !3
  %2 = getelementptr inbounds nuw i8, ptr %0, i64 256
  %3 = load ptr, ptr %2, align 8, !tbaa !6
  %4 = icmp eq ptr %3, null
  br i1 %4, label %_ZSt8for_eachIPPN3smt12theory_array8var_dataE11delete_procIS2_EET0_T_S8_S7_.exit, label %5

5:                                                ; preds = %1
  %6 = getelementptr inbounds i8, ptr %3, i64 -4
  %7 = load i32, ptr %6, align 4, !tbaa !560
  %8 = zext i32 %7 to i64
  %9 = getelementptr inbounds nuw ptr, ptr %3, i64 %8
  %.not4.i = icmp eq i32 %7, 0
  br i1 %.not4.i, label %_ZSt8for_eachIPPN3smt12theory_array8var_dataE11delete_procIS2_EET0_T_S8_S7_.exit, label %.lr.ph.i

.lr.ph.i:                                         ; preds = %5, %_ZN11delete_procIN3smt12theory_array8var_dataEEclEPS2_.exit.i
  %.05.i = phi ptr [ %12, %_ZN11delete_procIN3smt12theory_array8var_dataEEclEPS2_.exit.i ], [ %3, %5 ]
  %10 = load ptr, ptr %.05.i, align 8, !tbaa !561
  %.not.i.i = icmp eq ptr %10, null
  br i1 %.not.i.i, label %_ZN11delete_procIN3smt12theory_array8var_dataEEclEPS2_.exit.i, label %11

11:                                               ; preds = %.lr.ph.i
  invoke void @_Z7deallocIN3smt12theory_array8var_dataEEvPT_(ptr noundef nonnull %10)
          to label %_ZN11delete_procIN3smt12theory_array8var_dataEEclEPS2_.exit.i unwind label %55

_ZN11delete_procIN3smt12theory_array8var_dataEEclEPS2_.exit.i: ; preds = %11, %.lr.ph.i
  %12 = getelementptr inbounds nuw i8, ptr %.05.i, i64 8
  %.not.i = icmp eq ptr %12, %9
  br i1 %.not.i, label %_ZSt8for_eachIPPN3smt12theory_array8var_dataE11delete_procIS2_EET0_T_S8_S7_.exit, label %.lr.ph.i, !llvm.loop !563

_ZSt8for_eachIPPN3smt12theory_array8var_dataE11delete_procIS2_EET0_T_S8_S7_.exit: ; preds = %_ZN11delete_procIN3smt12theory_array8var_dataEEclEPS2_.exit.i, %1, %5
  %13 = getelementptr inbounds nuw i8, ptr %0, i64 384
  %14 = getelementptr inbounds nuw i8, ptr %0, i64 400
  tail call void @_ZN6regionD1Ev(ptr noundef nonnull align 8 dereferenceable(40) %14) #21
  %15 = getelementptr inbounds nuw i8, ptr %0, i64 392
  %16 = load ptr, ptr %15, align 8, !tbaa !548
  %.not.i.i.i = icmp eq ptr %16, null
  br i1 %.not.i.i.i, label %_ZN6vectorIjLb0EjED2Ev.exit.i, label %17

17:                                               ; preds = %_ZSt8for_eachIPPN3smt12theory_array8var_dataE11delete_procIS2_EET0_T_S8_S7_.exit
  %18 = getelementptr inbounds i8, ptr %16, i64 -8
  invoke void @_ZN6memory10deallocateEPv(ptr noundef nonnull %18)
          to label %_ZN6vectorIjLb0EjED2Ev.exit.i unwind label %19

19:                                               ; preds = %17
  %20 = landingpad { ptr, i32 }
          catch ptr null
  %21 = extractvalue { ptr, i32 } %20, 0
  tail call void @__clang_call_terminate(ptr %21) #22
  unreachable

_ZN6vectorIjLb0EjED2Ev.exit.i:                    ; preds = %17, %_ZSt8for_eachIPPN3smt12theory_array8var_dataE11delete_procIS2_EET0_T_S8_S7_.exit
  %22 = load ptr, ptr %13, align 8, !tbaa !565
  %.not.i.i1.i = icmp eq ptr %22, null
  br i1 %.not.i.i1.i, label %_ZN11trail_stackD2Ev.exit, label %23

23:                                               ; preds = %_ZN6vectorIjLb0EjED2Ev.exit.i
  %24 = getelementptr inbounds i8, ptr %22, i64 -8
  invoke void @_ZN6memory10deallocateEPv(ptr noundef nonnull %24)
          to label %_ZN11trail_stackD2Ev.exit unwind label %25

25:                                               ; preds = %23
  %26 = landingpad { ptr, i32 }
          catch ptr null
  %27 = extractvalue { ptr, i32 } %26, 0
  tail call void @__clang_call_terminate(ptr %27) #22
  unreachable

_ZN11trail_stackD2Ev.exit:                        ; preds = %_ZN6vectorIjLb0EjED2Ev.exit.i, %23
  %28 = getelementptr inbounds nuw i8, ptr %0, i64 360
  %29 = load ptr, ptr %28, align 8, !tbaa !548
  %.not.i.i.i1 = icmp eq ptr %29, null
  br i1 %.not.i.i.i1, label %_ZN6vectorIjLb0EjED2Ev.exit.i2, label %30

30:                                               ; preds = %_ZN11trail_stackD2Ev.exit
  %31 = getelementptr inbounds i8, ptr %29, i64 -8
  invoke void @_ZN6memory10deallocateEPv(ptr noundef nonnull %31)
          to label %_ZN6vectorIjLb0EjED2Ev.exit.i2 unwind label %32

32:                                               ; preds = %30
  %33 = landingpad { ptr, i32 }
          catch ptr null
  %34 = extractvalue { ptr, i32 } %33, 0
  tail call void @__clang_call_terminate(ptr %34) #22
  unreachable

_ZN6vectorIjLb0EjED2Ev.exit.i2:                   ; preds = %30, %_ZN11trail_stackD2Ev.exit
  %35 = getelementptr inbounds nuw i8, ptr %0, i64 352
  %36 = load ptr, ptr %35, align 8, !tbaa !548
  %.not.i.i1.i3 = icmp eq ptr %36, null
  br i1 %.not.i.i1.i3, label %_ZN6vectorIjLb0EjED2Ev.exit2.i, label %37

37:                                               ; preds = %_ZN6vectorIjLb0EjED2Ev.exit.i2
  %38 = getelementptr inbounds i8, ptr %36, i64 -8
  invoke void @_ZN6memory10deallocateEPv(ptr noundef nonnull %38)
          to label %_ZN6vectorIjLb0EjED2Ev.exit2.i unwind label %39

39:                                               ; preds = %37
  %40 = landingpad { ptr, i32 }
          catch ptr null
  %41 = extractvalue { ptr, i32 } %40, 0
  tail call void @__clang_call_terminate(ptr %41) #22
  unreachable

_ZN6vectorIjLb0EjED2Ev.exit2.i:                   ; preds = %37, %_ZN6vectorIjLb0EjED2Ev.exit.i2
  %42 = getelementptr inbounds nuw i8, ptr %0, i64 344
  %43 = load ptr, ptr %42, align 8, !tbaa !548
  %.not.i.i3.i = icmp eq ptr %43, null
  br i1 %.not.i.i3.i, label %_ZN10union_findIN3smt12theory_arrayEED2Ev.exit, label %44

44:                                               ; preds = %_ZN6vectorIjLb0EjED2Ev.exit2.i
  %45 = getelementptr inbounds i8, ptr %43, i64 -8
  invoke void @_ZN6memory10deallocateEPv(ptr noundef nonnull %45)
          to label %_ZN10union_findIN3smt12theory_arrayEED2Ev.exit unwind label %46

46:                                               ; preds = %44
  %47 = landingpad { ptr, i32 }
          catch ptr null
  %48 = extractvalue { ptr, i32 } %47, 0
  tail call void @__clang_call_terminate(ptr %48) #22
  unreachable

_ZN10union_findIN3smt12theory_arrayEED2Ev.exit:   ; preds = %_ZN6vectorIjLb0EjED2Ev.exit2.i, %44
  %49 = load ptr, ptr %2, align 8, !tbaa !6
  %.not.i.i4 = icmp eq ptr %49, null
  br i1 %.not.i.i4, label %_ZN6vectorIPN3smt12theory_array8var_dataELb0EjED2Ev.exit, label %50

50:                                               ; preds = %_ZN10union_findIN3smt12theory_arrayEED2Ev.exit
  %51 = getelementptr inbounds i8, ptr %49, i64 -8
  invoke void @_ZN6memory10deallocateEPv(ptr noundef nonnull %51)
          to label %_ZN6vectorIPN3smt12theory_array8var_dataELb0EjED2Ev.exit unwind label %52

52:                                               ; preds = %50
  %53 = landingpad { ptr, i32 }
          catch ptr null
  %54 = extractvalue { ptr, i32 } %53, 0
  tail call void @__clang_call_terminate(ptr %54) #22
  unreachable

_ZN6vectorIPN3smt12theory_array8var_dataELb0EjED2Ev.exit: ; preds = %_ZN10union_findIN3smt12theory_arrayEED2Ev.exit, %50
  tail call void @_ZN3smt17theory_array_baseD2Ev(ptr noundef nonnull align 8 dereferenceable(249) %0) #21
  ret void

55:                                               ; preds = %11
  %56 = landingpad { ptr, i32 }
          catch ptr null
  %57 = extractvalue { ptr, i32 } %56, 0
  tail call void @__clang_call_terminate(ptr %57) #22
  unreachable
}